target datalayout = "e-m:e-p270:32:32-p271:32:32-p272:64:64-i64:64-i128:128-f80:128-n8:16:32:64-S128"
target triple = "x86_64-unknown-linux-gnu"

%"class.std::__cxx11::basic_string" = type { %"struct.std::__cxx11::basic_string<char>::_Alloc_hider", i64, %union.anon.1 }
%"struct.std::__cxx11::basic_string<char>::_Alloc_hider" = type { ptr }
%union.anon.1 = type { i64, [8 x i8] }
%struct.alts_grpc_handshaker_client = type { %struct.alts_handshaker_client, %struct.gpr_refcount, ptr, ptr, ptr, %struct.grpc_closure, ptr, ptr, i8, %struct.grpc_metadata_array, ptr, ptr, ptr, %struct.grpc_slice, i8, %struct.grpc_slice, ptr, i64, %struct.grpc_closure, i32, %struct.grpc_slice, %"class.absl::lts_20230802::Mutex", i8, ptr, i64, ptr }
%struct.alts_handshaker_client = type { ptr }
%struct.gpr_refcount = type { i64 }
%struct.grpc_metadata_array = type { i64, i64, ptr }
%struct.grpc_closure = type { %union.anon, ptr, ptr, %union.anon.0 }
%union.anon = type { ptr }
%union.anon.0 = type { i64 }
%struct.grpc_slice = type { ptr, %"union.grpc_slice::grpc_slice_data" }
%"union.grpc_slice::grpc_slice_data" = type { %"struct.grpc_slice::grpc_slice_data::grpc_slice_refcounted", [8 x i8] }
%"struct.grpc_slice::grpc_slice_data::grpc_slice_refcounted" = type { i64, ptr }
%"class.absl::lts_20230802::Mutex" = type { %"struct.std::atomic" }
%"struct.std::atomic" = type { %"struct.std::__atomic_base" }
%"struct.std::__atomic_base" = type { i64 }
%"class.grpc_core::DebugLocation" = type { i8 }
%"class.absl::lts_20230802::Status" = type { i64 }
%"struct.absl::lts_20230802::status_internal::StatusRep" = type { %"struct.std::atomic.12", i32, %"class.std::__cxx11::basic_string", %"class.std::unique_ptr.14" }
%"struct.std::atomic.12" = type { %"struct.std::__atomic_base.13" }
%"struct.std::__atomic_base.13" = type { i32 }
%"class.std::unique_ptr.14" = type { %"struct.std::__uniq_ptr_data.15" }
%"struct.std::__uniq_ptr_data.15" = type { %"class.std::__uniq_ptr_impl.16" }
%"class.std::__uniq_ptr_impl.16" = type { %"class.std::tuple.17" }
%"class.std::tuple.17" = type { %"struct.std::_Tuple_impl.18" }
%"struct.std::_Tuple_impl.18" = type { %"struct.std::_Head_base.21" }
%"struct.std::_Head_base.21" = type { ptr }

@.str = private unnamed_addr constant [142 x i8] c"generated/home/dtcxzyw/WorkSpace/Projects/compilers/llvm-opt-benchmark/bench/grpc/grpc/src/core/tsi/alts/handshaker/alts_handshaker_client.cc\00", align 1
@_ZN12_GLOBAL__N_124g_queued_handshakes_initE = internal global i32 0, align 4

; Function Attrs: mustprogress nounwind uwtable
define linkonce_odr noundef ptr @_ZN4absl12lts_202308026Status12RepToPointerEm(i64 noundef %rep) #6 comdat align 2 {
entry:
  %rep.addr = alloca i64, align 8
  store i64 %rep, ptr %rep.addr, align 8
  %0 = load i64, ptr %rep.addr, align 8
  %sub = sub i64 %0, 1
  %1 = inttoptr i64 %sub to ptr
  ret ptr %1
}

; Function Attrs: mustprogress nounwind uwtable
define linkonce_odr noundef zeroext i1 @_ZN4absl12lts_202308026Status9IsInlinedEm(i64 noundef %rep) #6 comdat align 2 {
entry:
  %rep.addr = alloca i64, align 8
  store i64 %rep, ptr %rep.addr, align 8
  %0 = load i64, ptr %rep.addr, align 8
  %and = and i64 %0, 1
  %cmp = icmp eq i64 %and, 0
  ret i1 %cmp
}

; Function Attrs: mustprogress uwtable
define linkonce_odr void @_ZN4absl12lts_202308026Status3RefEm(i64 noundef %rep) #4 comdat align 2 {
entry:
  %this.addr.i = alloca ptr, align 8
  %__i.addr.i = alloca i32, align 4
  %__m.addr.i = alloca i32, align 4
  %.atomictmp.i = alloca i32, align 4
  %atomic-temp.i = alloca i32, align 4
  %rep.addr = alloca i64, align 8
  store i64 %rep, ptr %rep.addr, align 8
  %0 = load i64, ptr %rep.addr, align 8
  %call = call noundef zeroext i1 @_ZN4absl12lts_202308026Status9IsInlinedEm(i64 noundef %0)
  br i1 %call, label %if.end, label %if.then

if.then:                                          ; preds = %entry
  %1 = load i64, ptr %rep.addr, align 8
  %call1 = call noundef ptr @_ZN4absl12lts_202308026Status12RepToPointerEm(i64 noundef %1)
  %ref = getelementptr inbounds %"struct.absl::lts_20230802::status_internal::StatusRep", ptr %call1, i32 0, i32 0
  store ptr %ref, ptr %this.addr.i, align 8
  store i32 1, ptr %__i.addr.i, align 4
  store i32 0, ptr %__m.addr.i, align 4
  %this1.i = load ptr, ptr %this.addr.i, align 8
  %2 = load i32, ptr %__m.addr.i, align 4
  %3 = load i32, ptr %__i.addr.i, align 4
  store i32 %3, ptr %.atomictmp.i, align 4
  switch i32 %2, label %monotonic.i [
    i32 1, label %acquire.i
    i32 2, label %acquire.i
    i32 3, label %release.i
    i32 4, label %acqrel.i
    i32 5, label %seqcst.i
  ]

monotonic.i:                                      ; preds = %if.then
  %4 = load i32, ptr %.atomictmp.i, align 4
  %5 = atomicrmw add ptr %this1.i, i32 %4 monotonic, align 4
  store i32 %5, ptr %atomic-temp.i, align 4
  br label %_ZNSt13__atomic_baseIiE9fetch_addEiSt12memory_order.exit

acquire.i:                                        ; preds = %if.then, %if.then
  %6 = load i32, ptr %.atomictmp.i, align 4
  %7 = atomicrmw add ptr %this1.i, i32 %6 acquire, align 4
  store i32 %7, ptr %atomic-temp.i, align 4
  br label %_ZNSt13__atomic_baseIiE9fetch_addEiSt12memory_order.exit

release.i:                                        ; preds = %if.then
  %8 = load i32, ptr %.atomictmp.i, align 4
  %9 = atomicrmw add ptr %this1.i, i32 %8 release, align 4
  store i32 %9, ptr %atomic-temp.i, align 4
  br label %_ZNSt13__atomic_baseIiE9fetch_addEiSt12memory_order.exit

acqrel.i:                                         ; preds = %if.then
  %10 = load i32, ptr %.atomictmp.i, align 4
  %11 = atomicrmw add ptr %this1.i, i32 %10 acq_rel, align 4
  store i32 %11, ptr %atomic-temp.i, align 4
  br label %_ZNSt13__atomic_baseIiE9fetch_addEiSt12memory_order.exit

seqcst.i:                                         ; preds = %if.then
  %12 = load i32, ptr %.atomictmp.i, align 4
  %13 = atomicrmw add ptr %this1.i, i32 %12 seq_cst, align 4
  store i32 %13, ptr %atomic-temp.i, align 4
  br label %_ZNSt13__atomic_baseIiE9fetch_addEiSt12memory_order.exit

_ZNSt13__atomic_baseIiE9fetch_addEiSt12memory_order.exit: ; preds = %seqcst.i, %acqrel.i, %release.i, %acquire.i, %monotonic.i
  br label %if.end

if.end:                                           ; preds = %_ZNSt13__atomic_baseIiE9fetch_addEiSt12memory_order.exit, %entry
  ret void
}

; Function Attrs: mustprogress uwtable
define linkonce_odr void @_ZN9grpc_core7Closure3RunERKNS_13DebugLocationEP12grpc_closureN4absl12lts_202308026StatusE(ptr noundef nonnull align 1 dereferenceable(1) %location, ptr noundef %closure, ptr noundef %error) #4 comdat align 2 personality ptr @__gxx_personality_v0 {
entry:
  %location.addr = alloca ptr, align 8
  %closure.addr = alloca ptr, align 8
  %error.indirect_addr = alloca ptr, align 8
  %agg.tmp = alloca %"class.absl::lts_20230802::Status", align 8
  %exn.slot = alloca ptr, align 8
  %ehselector.slot = alloca i32, align 4
  store ptr %location, ptr %location.addr, align 8
  store ptr %closure, ptr %closure.addr, align 8
  store ptr %error, ptr %error.indirect_addr, align 8
  %0 = load ptr, ptr %closure.addr, align 8
  %cmp = icmp eq ptr %0, null
  br i1 %cmp, label %if.then, label %if.end

if.then:                                          ; preds = %entry
  br label %return

if.end:                                           ; preds = %entry
  %1 = load ptr, ptr %closure.addr, align 8
  %cb = getelementptr inbounds %struct.grpc_closure, ptr %1, i32 0, i32 1
  %2 = load ptr, ptr %cb, align 8
  %3 = load ptr, ptr %closure.addr, align 8
  %cb_arg = getelementptr inbounds %struct.grpc_closure, ptr %3, i32 0, i32 2
  %4 = load ptr, ptr %cb_arg, align 8
  call void @_ZN4absl12lts_202308026StatusC2ERKS1_(ptr noundef nonnull align 8 dereferenceable(8) %agg.tmp, ptr noundef nonnull align 8 dereferenceable(8) %error)
  invoke void %2(ptr noundef %4, ptr noundef %agg.tmp)
          to label %invoke.cont unwind label %lpad

invoke.cont:                                      ; preds = %if.end
  call void @_ZN4absl12lts_202308026StatusD2Ev(ptr noundef nonnull align 8 dereferenceable(8) %agg.tmp) #3
  br label %return

return:                                           ; preds = %invoke.cont, %if.then
  ret void

lpad:                                             ; preds = %if.end
  %5 = landingpad { ptr, i32 }
          cleanup
  %6 = extractvalue { ptr, i32 } %5, 0
  store ptr %6, ptr %exn.slot, align 8
  %7 = extractvalue { ptr, i32 } %5, 1
  store i32 %7, ptr %ehselector.slot, align 4
  call void @_ZN4absl12lts_202308026StatusD2Ev(ptr noundef nonnull align 8 dereferenceable(8) %agg.tmp) #3
  br label %eh.resume

eh.resume:                                        ; preds = %lpad
  %exn = load ptr, ptr %exn.slot, align 8
  %sel = load i32, ptr %ehselector.slot, align 4
  %lpad.val = insertvalue { ptr, i32 } poison, ptr %exn, 0
  %lpad.val1 = insertvalue { ptr, i32 } %lpad.val, i32 %sel, 1
  resume { ptr, i32 } %lpad.val1
}

; Function Attrs: mustprogress uwtable
define linkonce_odr void @_ZN4absl12lts_202308026StatusC2ERKS1_(ptr noundef nonnull align 8 dereferenceable(8) %this, ptr noundef nonnull align 8 dereferenceable(8) %x) unnamed_addr #4 comdat align 2 {
entry:
  %this.addr = alloca ptr, align 8
  %x.addr = alloca ptr, align 8
  store ptr %this, ptr %this.addr, align 8
  store ptr %x, ptr %x.addr, align 8
  %this1 = load ptr, ptr %this.addr, align 8
  %rep_ = getelementptr inbounds %"class.absl::lts_20230802::Status", ptr %this1, i32 0, i32 0
  %0 = load ptr, ptr %x.addr, align 8
  %rep_2 = getelementptr inbounds %"class.absl::lts_20230802::Status", ptr %0, i32 0, i32 0
  %1 = load i64, ptr %rep_2, align 8
  store i64 %1, ptr %rep_, align 8
  %rep_3 = getelementptr inbounds %"class.absl::lts_20230802::Status", ptr %this1, i32 0, i32 0
  %2 = load i64, ptr %rep_3, align 8
  call void @_ZN4absl12lts_202308026Status3RefEm(i64 noundef %2)
  ret void
}

; Function Attrs: mustprogress nounwind uwtable
define linkonce_odr void @_ZN9grpc_core13DebugLocationC2EPKci(ptr noundef nonnull align 1 dereferenceable(1) %this, ptr noundef %0, i32 noundef %1) unnamed_addr #6 comdat align 2 {
entry:
  %this.addr = alloca ptr, align 8
  %.addr = alloca ptr, align 8
  %.addr1 = alloca i32, align 4
  store ptr %this, ptr %this.addr, align 8
  store ptr %0, ptr %.addr, align 8
  store i32 %1, ptr %.addr1, align 4
  ret void
}

; Function Attrs: mustprogress uwtable
define void @_ZN9grpc_core8internal53alts_handshaker_client_on_status_received_for_testingEP22alts_handshaker_client16grpc_status_codeN4absl12lts_202308026StatusE(ptr noundef %c, i32 noundef %status, ptr noundef %error) #4 personality ptr @__gxx_personality_v0 {
entry:
  %c.addr = alloca ptr, align 8
  %status.addr = alloca i32, align 4
  %error.indirect_addr = alloca ptr, align 8
  %client = alloca ptr, align 8
  %ref.tmp = alloca %struct.grpc_slice, align 8
  %ref.tmp1 = alloca %"class.grpc_core::DebugLocation", align 1
  %agg.tmp = alloca %"class.absl::lts_20230802::Status", align 8
  %exn.slot = alloca ptr, align 8
  %ehselector.slot = alloca i32, align 4
  store ptr %c, ptr %c.addr, align 8
  store i32 %status, ptr %status.addr, align 4
  store ptr %error, ptr %error.indirect_addr, align 8
  call void @gpr_once_init(ptr noundef @_ZN12_GLOBAL__N_124g_queued_handshakes_initE, ptr noundef @_ZN12_GLOBAL__N_121DoHandshakeQueuesInitEv)
  %0 = load ptr, ptr %c.addr, align 8
  store ptr %0, ptr %client, align 8
  %1 = load i32, ptr %status.addr, align 4
  %2 = load ptr, ptr %client, align 8
  %handshake_status_code = getelementptr inbounds %struct.alts_grpc_handshaker_client, ptr %2, i32 0, i32 19
  store i32 %1, ptr %handshake_status_code, align 8
  call void @grpc_empty_slice(ptr sret(%struct.grpc_slice) align 8 %ref.tmp)
  %3 = load ptr, ptr %client, align 8
  %handshake_status_details = getelementptr inbounds %struct.alts_grpc_handshaker_client, ptr %3, i32 0, i32 20
  call void @llvm.memcpy.p0.p0.i64(ptr align 8 %handshake_status_details, ptr align 8 %ref.tmp, i64 32, i1 false)
  call void @_ZN9grpc_core13DebugLocationC2EPKci(ptr noundef nonnull align 1 dereferenceable(1) %ref.tmp1, ptr noundef @.str, i32 noundef 880)
  %4 = load ptr, ptr %client, align 8
  %on_status_received = getelementptr inbounds %struct.alts_grpc_handshaker_client, ptr %4, i32 0, i32 18
  call void @_ZN4absl12lts_202308026StatusC2ERKS1_(ptr noundef nonnull align 8 dereferenceable(8) %agg.tmp, ptr noundef nonnull align 8 dereferenceable(8) %error)
  invoke void @_ZN9grpc_core7Closure3RunERKNS_13DebugLocationEP12grpc_closureN4absl12lts_202308026StatusE(ptr noundef nonnull align 1 dereferenceable(1) %ref.tmp1, ptr noundef %on_status_received, ptr noundef %agg.tmp)
          to label %invoke.cont unwind label %lpad

invoke.cont:                                      ; preds = %entry
  call void @_ZN4absl12lts_202308026StatusD2Ev(ptr noundef nonnull align 8 dereferenceable(8) %agg.tmp) #3
  ret void

lpad:                                             ; preds = %entry
  %5 = landingpad { ptr, i32 }
          cleanup
  %6 = extractvalue { ptr, i32 } %5, 0
  store ptr %6, ptr %exn.slot, align 8
  %7 = extractvalue { ptr, i32 } %5, 1
  store i32 %7, ptr %ehselector.slot, align 4
  call void @_ZN4absl12lts_202308026StatusD2Ev(ptr noundef nonnull align 8 dereferenceable(8) %agg.tmp) #3
  br label %eh.resume

eh.resume:                                        ; preds = %lpad
  %exn = load ptr, ptr %exn.slot, align 8
  %sel = load i32, ptr %ehselector.slot, align 4
  %lpad.val = insertvalue { ptr, i32 } poison, ptr %exn, 0
  %lpad.val2 = insertvalue { ptr, i32 } %lpad.val, i32 %sel, 1
  resume { ptr, i32 } %lpad.val2
}