; Function Attrs: mustprogress uwtable
define void @_ZN9grpc_core8internal53alts_handshaker_client_on_status_received_for_testingEP22alts_handshaker_client16grpc_status_codeN4absl12lts_202308026StatusE(ptr nocapture noundef %c, i32 noundef %status, ptr nocapture noundef readonly %error) local_unnamed_addr #3 personality ptr @__gxx_personality_v0 {
entry:
  %agg.tmp.i = alloca %"class.absl::lts_20230802::Status", align 8
  %ref.tmp = alloca %struct.grpc_slice, align 8
  %agg.tmp = alloca %"class.absl::lts_20230802::Status", align 8
  tail call void @gpr_once_init(ptr noundef nonnull @_ZN12_GLOBAL__N_124g_queued_handshakes_initE, ptr noundef nonnull @_ZN12_GLOBAL__N_121DoHandshakeQueuesInitEv)
  %handshake_status_code = getelementptr inbounds i8, ptr %c, i64 264
  store i32 %status, ptr %handshake_status_code, align 8
  call void @grpc_empty_slice(ptr nonnull sret(%struct.grpc_slice) align 8 %ref.tmp)
  %handshake_status_details = getelementptr inbounds i8, ptr %c, i64 272
  call void @llvm.memcpy.p0.p0.i64(ptr noundef nonnull align 8 dereferenceable(32) %handshake_status_details, ptr noundef nonnull align 8 dereferenceable(32) %ref.tmp, i64 32, i1 false)
  %0 = load i64, ptr %error, align 8
  store i64 %0, ptr %agg.tmp, align 8
  %and.i.i.i = and i64 %0, 1
  %cmp.i.i.i = icmp eq i64 %and.i.i.i, 0
  br i1 %cmp.i.i.i, label %_ZN4absl12lts_202308026StatusC2ERKS1_.exit.thread, label %if.then.i.i.i

_ZN4absl12lts_202308026StatusC2ERKS1_.exit.thread: ; preds = %entry
  call void @llvm.lifetime.start.p0(i64 8, ptr nonnull %agg.tmp.i)
  %cb.i7 = getelementptr inbounds i8, ptr %c, i64 240
  %1 = load ptr, ptr %cb.i7, align 8
  %cb_arg.i8 = getelementptr inbounds i8, ptr %c, i64 248
  %2 = load ptr, ptr %cb_arg.i8, align 8
  store i64 %0, ptr %agg.tmp.i, align 8
  br label %_ZN4absl12lts_202308026StatusC2ERKS1_.exit.i

if.then.i.i.i:                                    ; preds = %entry
  %sub.i.i.i = add nsw i64 %0, -1
  %3 = inttoptr i64 %sub.i.i.i to ptr
  %4 = atomicrmw add ptr %3, i32 1 monotonic, align 4
  call void @llvm.lifetime.start.p0(i64 8, ptr nonnull %agg.tmp.i)
  %cb.i = getelementptr inbounds i8, ptr %c, i64 240
  %5 = load ptr, ptr %cb.i, align 8
  %cb_arg.i = getelementptr inbounds i8, ptr %c, i64 248
  %6 = load ptr, ptr %cb_arg.i, align 8
  store i64 %0, ptr %agg.tmp.i, align 8
  %sub.i.i.i.i = add nsw i64 %0, -1
  %7 = inttoptr i64 %sub.i.i.i.i to ptr
  %8 = atomicrmw add ptr %7, i32 1 monotonic, align 4
  br label %_ZN4absl12lts_202308026StatusC2ERKS1_.exit.i

_ZN4absl12lts_202308026StatusC2ERKS1_.exit.i:     ; preds = %_ZN4absl12lts_202308026StatusC2ERKS1_.exit.thread, %if.then.i.i.i
  %9 = phi ptr [ %2, %_ZN4absl12lts_202308026StatusC2ERKS1_.exit.thread ], [ %6, %if.then.i.i.i ]
  %10 = phi ptr [ %1, %_ZN4absl12lts_202308026StatusC2ERKS1_.exit.thread ], [ %5, %if.then.i.i.i ]
  invoke void %10(ptr noundef %9, ptr noundef nonnull %agg.tmp.i)
          to label %invoke.cont.i unwind label %lpad.i

invoke.cont.i:                                    ; preds = %_ZN4absl12lts_202308026StatusC2ERKS1_.exit.i
  %11 = load i64, ptr %agg.tmp.i, align 8
  %and.i.i.i3.i = and i64 %11, 1
  %cmp.i.i.i4.i = icmp eq i64 %and.i.i.i3.i, 0
  br i1 %cmp.i.i.i4.i, label %invoke.cont, label %if.then.i.i5.i

if.then.i.i5.i:                                   ; preds = %invoke.cont.i
  invoke void @_ZN4absl12lts_202308026Status15UnrefNonInlinedEm(i64 noundef %11)
          to label %invoke.cont unwind label %terminate.lpad.i.i

terminate.lpad.i.i:                               ; preds = %if.then.i.i5.i
  %12 = landingpad { ptr, i32 }
          catch ptr null
  %13 = extractvalue { ptr, i32 } %12, 0
  call void @__clang_call_terminate(ptr %13) #19
  unreachable

lpad.i:                                           ; preds = %_ZN4absl12lts_202308026StatusC2ERKS1_.exit.i
  %14 = landingpad { ptr, i32 }
          cleanup
  call void @_ZN4absl12lts_202308026StatusD2Ev(ptr noundef nonnull align 8 dereferenceable(8) %agg.tmp.i) #18
  call void @_ZN4absl12lts_202308026StatusD2Ev(ptr noundef nonnull align 8 dereferenceable(8) %agg.tmp) #18
  resume { ptr, i32 } %14

invoke.cont:                                      ; preds = %if.then.i.i5.i, %invoke.cont.i
  call void @llvm.lifetime.end.p0(i64 8, ptr nonnull %agg.tmp.i)
  br i1 %cmp.i.i.i, label %_ZN4absl12lts_202308026StatusD2Ev.exit, label %if.then.i.i5

if.then.i.i5:                                     ; preds = %invoke.cont
  invoke void @_ZN4absl12lts_202308026Status15UnrefNonInlinedEm(i64 noundef %0)
          to label %_ZN4absl12lts_202308026StatusD2Ev.exit unwind label %terminate.lpad.i

terminate.lpad.i:                                 ; preds = %if.then.i.i5
  %15 = landingpad { ptr, i32 }
          catch ptr null
  %16 = extractvalue { ptr, i32 } %15, 0
  call void @__clang_call_terminate(ptr %16) #19
  unreachable

_ZN4absl12lts_202308026StatusD2Ev.exit:           ; preds = %invoke.cont, %if.then.i.i5
  ret void
}